target datalayout = "e-m:e-p270:32:32-p271:32:32-p272:64:64-i64:64-i128:128-f80:128-n8:16:32:64-S128"
target triple = "x86_64-pc-linux-gnu"

%struct.TupleDescData = type { i32, i32, i32, i32, ptr, [0 x %struct.CompactAttribute] }
%struct.CompactAttribute = type { i32, i16, i8, i8, i8, i8, i8, i8, i8 }
%struct.HeapTupleData = type { i32, %struct.ItemPointerData, i32, ptr }
%struct.ItemPointerData = type { %struct.BlockIdData, i16 }
%struct.BlockIdData = type { i16, i16 }
%struct.HeapTupleHeaderData = type { %union.anon, %struct.ItemPointerData, i16, i16, i8, [0 x i8] }
%union.anon = type { %struct.HeapTupleFields }
%struct.HeapTupleFields = type { i32, i32, %union.anon.0 }
%union.anon.0 = type { i32 }
%struct.varattrib_1b = type { i8, [0 x i8] }
%struct.anon = type { i32, [0 x i8] }
%struct.DatumTupleFields = type { i32, i32, i32 }

; Function Attrs: inlinehint nounwind uwtable
define internal void @BlockIdSet(ptr noundef %0, i32 noundef %1) #3 {
  %3 = alloca ptr, align 8
  %4 = alloca i32, align 4
  store ptr %0, ptr %3, align 8
  store i32 %1, ptr %4, align 4
  %5 = load i32, ptr %4, align 4
  %6 = lshr i32 %5, 16
  %7 = trunc i32 %6 to i16
  %8 = load ptr, ptr %3, align 8
  %9 = getelementptr inbounds nuw %struct.BlockIdData, ptr %8, i32 0, i32 0
  store i16 %7, ptr %9, align 2
  %10 = load i32, ptr %4, align 4
  %11 = and i32 %10, 65535
  %12 = trunc i32 %11 to i16
  %13 = load ptr, ptr %3, align 8
  %14 = getelementptr inbounds nuw %struct.BlockIdData, ptr %13, i32 0, i32 1
  store i16 %12, ptr %14, align 2
  ret void
}

; Function Attrs: inlinehint nounwind uwtable
define internal void @HeapTupleHeaderSetTypMod(ptr noundef %0, i32 noundef %1) #3 {
  %3 = alloca ptr, align 8
  %4 = alloca i32, align 4
  store ptr %0, ptr %3, align 8
  store i32 %1, ptr %4, align 4
  %5 = load i32, ptr %4, align 4
  %6 = load ptr, ptr %3, align 8
  %7 = getelementptr inbounds nuw %struct.HeapTupleHeaderData, ptr %6, i32 0, i32 0
  %8 = getelementptr inbounds nuw %struct.DatumTupleFields, ptr %7, i32 0, i32 1
  store i32 %5, ptr %8, align 4
  ret void
}

; Function Attrs: inlinehint nounwind uwtable
define internal void @HeapTupleHeaderSetTypeId(ptr noundef %0, i32 noundef %1) #3 {
  %3 = alloca ptr, align 8
  %4 = alloca i32, align 4
  store ptr %0, ptr %3, align 8
  store i32 %1, ptr %4, align 4
  %5 = load i32, ptr %4, align 4
  %6 = load ptr, ptr %3, align 8
  %7 = getelementptr inbounds nuw %struct.HeapTupleHeaderData, ptr %6, i32 0, i32 0
  %8 = getelementptr inbounds nuw %struct.DatumTupleFields, ptr %7, i32 0, i32 2
  store i32 %5, ptr %8, align 4
  ret void
}

; Function Attrs: inlinehint nounwind uwtable
define internal void @HeapTupleHeaderSetDatumLength(ptr noundef %0, i32 noundef %1) #3 {
  %3 = alloca ptr, align 8
  %4 = alloca i32, align 4
  store ptr %0, ptr %3, align 8
  store i32 %1, ptr %4, align 4
  %5 = load i32, ptr %4, align 4
  %6 = shl i32 %5, 2
  %7 = load ptr, ptr %3, align 8
  %8 = getelementptr inbounds nuw %struct.anon, ptr %7, i32 0, i32 0
  store i32 %6, ptr %8, align 4
  ret void
}

; Function Attrs: inlinehint nounwind uwtable
define internal i32 @BITMAPLEN(i32 noundef %0) #3 {
  %2 = alloca i32, align 4
  store i32 %0, ptr %2, align 4
  %3 = load i32, ptr %2, align 4
  %4 = add i32 %3, 7
  %5 = sdiv i32 %4, 8
  ret i32 %5
}

; Function Attrs: inlinehint nounwind uwtable
define internal i64 @PointerGetDatum(ptr noundef %0) #3 {
  %2 = alloca ptr, align 8
  store ptr %0, ptr %2, align 8
  %3 = load ptr, ptr %2, align 8
  %4 = ptrtoint ptr %3 to i64
  ret i64 %4
}

; Function Attrs: inlinehint nounwind uwtable
define internal ptr @DatumGetPointer(i64 noundef %0) #3 {
  %2 = alloca i64, align 8
  store i64 %0, ptr %2, align 8
  %3 = load i64, ptr %2, align 8
  %4 = inttoptr i64 %3 to ptr
  ret ptr %4
}

; Function Attrs: inlinehint nounwind uwtable
define internal ptr @TupleDescCompactAttr(ptr noundef %0, i32 noundef %1) #3 {
  %3 = alloca ptr, align 8
  %4 = alloca i32, align 4
  %5 = alloca ptr, align 8
  store ptr %0, ptr %3, align 8
  store i32 %1, ptr %4, align 4
  call void @llvm.lifetime.start.p0(i64 8, ptr %5) #7
  %6 = load ptr, ptr %3, align 8
  %7 = getelementptr inbounds nuw %struct.TupleDescData, ptr %6, i32 0, i32 5
  %8 = load i32, ptr %4, align 4
  %9 = sext i32 %8 to i64
  %10 = getelementptr inbounds [0 x %struct.CompactAttribute], ptr %7, i64 0, i64 %9
  store ptr %10, ptr %5, align 8
  %11 = load ptr, ptr %5, align 8
  call void @llvm.lifetime.end.p0(i64 8, ptr %5) #7
  ret ptr %11
}

; Function Attrs: inlinehint nounwind uwtable
define internal void @ItemPointerSetInvalid(ptr noundef %0) #3 {
  %2 = alloca ptr, align 8
  store ptr %0, ptr %2, align 8
  %3 = load ptr, ptr %2, align 8
  %4 = getelementptr inbounds nuw %struct.ItemPointerData, ptr %3, i32 0, i32 0
  call void @BlockIdSet(ptr noundef %4, i32 noundef -1)
  %5 = load ptr, ptr %2, align 8
  %6 = getelementptr inbounds nuw %struct.ItemPointerData, ptr %5, i32 0, i32 1
  store i16 0, ptr %6, align 2
  ret void
}

; Function Attrs: nounwind uwtable
define dso_local i64 @toast_flatten_tuple_to_datum(ptr noundef %0, i32 noundef %1, ptr noundef %2) #0 {
  %4 = alloca ptr, align 8
  %5 = alloca i32, align 4
  %6 = alloca ptr, align 8
  %7 = alloca ptr, align 8
  %8 = alloca i32, align 4
  %9 = alloca i32, align 4
  %10 = alloca i32, align 4
  %11 = alloca %struct.HeapTupleData, align 8
  %12 = alloca i32, align 4
  %13 = alloca i32, align 4
  %14 = alloca i8, align 1
  %15 = alloca [1664 x i64], align 16
  %16 = alloca [1664 x i8], align 16
  %17 = alloca [1664 x i8], align 16
  %18 = alloca ptr, align 8
  store ptr %0, ptr %4, align 8
  store i32 %1, ptr %5, align 4
  store ptr %2, ptr %6, align 8
  call void @llvm.lifetime.start.p0(i64 8, ptr %7) #7
  call void @llvm.lifetime.start.p0(i64 4, ptr %8) #7
  call void @llvm.lifetime.start.p0(i64 4, ptr %9) #7
  call void @llvm.lifetime.start.p0(i64 4, ptr %10) #7
  call void @llvm.lifetime.start.p0(i64 24, ptr %11) #7
  call void @llvm.lifetime.start.p0(i64 4, ptr %12) #7
  %19 = load ptr, ptr %6, align 8
  %20 = getelementptr inbounds nuw %struct.TupleDescData, ptr %19, i32 0, i32 0
  %21 = load i32, ptr %20, align 8
  store i32 %21, ptr %12, align 4
  call void @llvm.lifetime.start.p0(i64 4, ptr %13) #7
  call void @llvm.lifetime.start.p0(i64 1, ptr %14) #7
  store i8 0, ptr %14, align 1
  call void @llvm.lifetime.start.p0(i64 13312, ptr %15) #7
  call void @llvm.lifetime.start.p0(i64 1664, ptr %16) #7
  call void @llvm.lifetime.start.p0(i64 1664, ptr %17) #7
  %22 = load i32, ptr %5, align 4
  %23 = getelementptr inbounds nuw %struct.HeapTupleData, ptr %11, i32 0, i32 0
  store i32 %22, ptr %23, align 8
  %24 = getelementptr inbounds nuw %struct.HeapTupleData, ptr %11, i32 0, i32 1
  call void @ItemPointerSetInvalid(ptr noundef %24)
  %25 = getelementptr inbounds nuw %struct.HeapTupleData, ptr %11, i32 0, i32 2
  store i32 0, ptr %25, align 4
  %26 = load ptr, ptr %4, align 8
  %27 = getelementptr inbounds nuw %struct.HeapTupleData, ptr %11, i32 0, i32 3
  store ptr %26, ptr %27, align 8
  %28 = load ptr, ptr %6, align 8
  %29 = getelementptr inbounds [1664 x i64], ptr %15, i64 0, i64 0
  %30 = getelementptr inbounds [1664 x i8], ptr %16, i64 0, i64 0
  call void @heap_deform_tuple(ptr noundef %11, ptr noundef %28, ptr noundef %29, ptr noundef %30)
  %31 = getelementptr inbounds [1664 x i8], ptr %17, i64 0, i64 0
  %32 = load i32, ptr %12, align 4
  %33 = sext i32 %32 to i64
  %34 = mul i64 %33, 1
  call void @llvm.memset.p0.i64(ptr align 16 %31, i8 0, i64 %34, i1 false)
  store i32 0, ptr %13, align 4
  br label %35

35:                                               ; preds = %86, %3
  %36 = load i32, ptr %13, align 4
  %37 = load i32, ptr %12, align 4
  %38 = icmp slt i32 %36, %37
  br i1 %38, label %39, label %89

39:                                               ; preds = %35
  %40 = load i32, ptr %13, align 4
  %41 = sext i32 %40 to i64
  %42 = getelementptr inbounds [1664 x i8], ptr %16, i64 0, i64 %41
  %43 = load i8, ptr %42, align 1, !range !4, !noundef !5
  %44 = trunc i8 %43 to i1
  br i1 %44, label %45, label %46

45:                                               ; preds = %39
  store i8 1, ptr %14, align 1
  br label %85

46:                                               ; preds = %39
  %47 = load ptr, ptr %6, align 8
  %48 = load i32, ptr %13, align 4
  %49 = call ptr @TupleDescCompactAttr(ptr noundef %47, i32 noundef %48)
  %50 = getelementptr inbounds nuw %struct.CompactAttribute, ptr %49, i32 0, i32 1
  %51 = load i16, ptr %50, align 4
  %52 = sext i16 %51 to i32
  %53 = icmp eq i32 %52, -1
  br i1 %53, label %54, label %84

54:                                               ; preds = %46
  call void @llvm.lifetime.start.p0(i64 8, ptr %18) #7
  %55 = load i32, ptr %13, align 4
  %56 = sext i32 %55 to i64
  %57 = getelementptr inbounds [1664 x i64], ptr %15, i64 0, i64 %56
  %58 = load i64, ptr %57, align 8
  %59 = call ptr @DatumGetPointer(i64 noundef %58)
  store ptr %59, ptr %18, align 8
  %60 = load ptr, ptr %18, align 8
  %61 = getelementptr inbounds nuw %struct.varattrib_1b, ptr %60, i32 0, i32 0
  %62 = load i8, ptr %61, align 1
  %63 = zext i8 %62 to i32
  %64 = icmp eq i32 %63, 1
  br i1 %64, label %72, label %65

65:                                               ; preds = %54
  %66 = load ptr, ptr %18, align 8
  %67 = getelementptr inbounds nuw %struct.varattrib_1b, ptr %66, i32 0, i32 0
  %68 = load i8, ptr %67, align 1
  %69 = zext i8 %68 to i32
  %70 = and i32 %69, 3
  %71 = icmp eq i32 %70, 2
  br i1 %71, label %72, label %83

72:                                               ; preds = %65, %54
  %73 = load ptr, ptr %18, align 8
  %74 = call ptr @detoast_attr(ptr noundef %73)
  store ptr %74, ptr %18, align 8
  %75 = load ptr, ptr %18, align 8
  %76 = call i64 @PointerGetDatum(ptr noundef %75)
  %77 = load i32, ptr %13, align 4
  %78 = sext i32 %77 to i64
  %79 = getelementptr inbounds [1664 x i64], ptr %15, i64 0, i64 %78
  store i64 %76, ptr %79, align 8
  %80 = load i32, ptr %13, align 4
  %81 = sext i32 %80 to i64
  %82 = getelementptr inbounds [1664 x i8], ptr %17, i64 0, i64 %81
  store i8 1, ptr %82, align 1
  br label %83

83:                                               ; preds = %72, %65
  call void @llvm.lifetime.end.p0(i64 8, ptr %18) #7
  br label %84

84:                                               ; preds = %83, %46
  br label %85

85:                                               ; preds = %84, %45
  br label %86

86:                                               ; preds = %85
  %87 = load i32, ptr %13, align 4
  %88 = add i32 %87, 1
  store i32 %88, ptr %13, align 4
  br label %35, !llvm.loop !13

89:                                               ; preds = %35
  store i32 23, ptr %8, align 4
  %90 = load i8, ptr %14, align 1, !range !4, !noundef !5
  %91 = trunc i8 %90 to i1
  br i1 %91, label %92, label %97

92:                                               ; preds = %89
  %93 = load i32, ptr %12, align 4
  %94 = call i32 @BITMAPLEN(i32 noundef %93)
  %95 = load i32, ptr %8, align 4
  %96 = add i32 %95, %94
  store i32 %96, ptr %8, align 4
  br label %97

97:                                               ; preds = %92, %89
  %98 = load i32, ptr %8, align 4
  %99 = sext i32 %98 to i64
  %100 = add i64 %99, 7
  %101 = and i64 %100, -8
  %102 = trunc i64 %101 to i32
  store i32 %102, ptr %8, align 4
  %103 = load ptr, ptr %6, align 8
  %104 = getelementptr inbounds [1664 x i64], ptr %15, i64 0, i64 0
  %105 = getelementptr inbounds [1664 x i8], ptr %16, i64 0, i64 0
  %106 = call i64 @heap_compute_data_size(ptr noundef %103, ptr noundef %104, ptr noundef %105)
  %107 = trunc i64 %106 to i32
  store i32 %107, ptr %9, align 4
  %108 = load i32, ptr %8, align 4
  %109 = load i32, ptr %9, align 4
  %110 = add i32 %108, %109
  store i32 %110, ptr %10, align 4
  %111 = load i32, ptr %10, align 4
  %112 = sext i32 %111 to i64
  %113 = call ptr @palloc0(i64 noundef %112)
  store ptr %113, ptr %7, align 8
  %114 = load ptr, ptr %7, align 8
  %115 = load ptr, ptr %4, align 8
  call void @llvm.memcpy.p0.p0.i64(ptr align 4 %114, ptr align 4 %115, i64 23, i1 false)
  %116 = load ptr, ptr %7, align 8
  %117 = getelementptr inbounds nuw %struct.HeapTupleHeaderData, ptr %116, i32 0, i32 2
  %118 = load i16, ptr %117, align 2
  %119 = zext i16 %118 to i32
  %120 = and i32 %119, -2048
  %121 = load i32, ptr %12, align 4
  %122 = or i32 %120, %121
  %123 = trunc i32 %122 to i16
  %124 = load ptr, ptr %7, align 8
  %125 = getelementptr inbounds nuw %struct.HeapTupleHeaderData, ptr %124, i32 0, i32 2
  store i16 %123, ptr %125, align 2
  %126 = load i32, ptr %8, align 4
  %127 = trunc i32 %126 to i8
  %128 = load ptr, ptr %7, align 8
  %129 = getelementptr inbounds nuw %struct.HeapTupleHeaderData, ptr %128, i32 0, i32 4
  store i8 %127, ptr %129, align 2
  %130 = load ptr, ptr %7, align 8
  %131 = load i32, ptr %10, align 4
  call void @HeapTupleHeaderSetDatumLength(ptr noundef %130, i32 noundef %131)
  %132 = load ptr, ptr %7, align 8
  %133 = load ptr, ptr %6, align 8
  %134 = getelementptr inbounds nuw %struct.TupleDescData, ptr %133, i32 0, i32 1
  %135 = load i32, ptr %134, align 4
  call void @HeapTupleHeaderSetTypeId(ptr noundef %132, i32 noundef %135)
  %136 = load ptr, ptr %7, align 8
  %137 = load ptr, ptr %6, align 8
  %138 = getelementptr inbounds nuw %struct.TupleDescData, ptr %137, i32 0, i32 2
  %139 = load i32, ptr %138, align 8
  call void @HeapTupleHeaderSetTypMod(ptr noundef %136, i32 noundef %139)
  %140 = load ptr, ptr %6, align 8
  %141 = getelementptr inbounds [1664 x i64], ptr %15, i64 0, i64 0
  %142 = getelementptr inbounds [1664 x i8], ptr %16, i64 0, i64 0
  %143 = load ptr, ptr %7, align 8
  %144 = load i32, ptr %8, align 4
  %145 = sext i32 %144 to i64
  %146 = getelementptr inbounds i8, ptr %143, i64 %145
  %147 = load i32, ptr %9, align 4
  %148 = sext i32 %147 to i64
  %149 = load ptr, ptr %7, align 8
  %150 = getelementptr inbounds nuw %struct.HeapTupleHeaderData, ptr %149, i32 0, i32 3
  %151 = load i8, ptr %14, align 1, !range !4, !noundef !5
  %152 = trunc i8 %151 to i1
  br i1 %152, label %153, label %157

153:                                              ; preds = %97
  %154 = load ptr, ptr %7, align 8
  %155 = getelementptr inbounds nuw %struct.HeapTupleHeaderData, ptr %154, i32 0, i32 5
  %156 = getelementptr inbounds [0 x i8], ptr %155, i64 0, i64 0
  br label %158

157:                                              ; preds = %97
  br label %158

158:                                              ; preds = %157, %153
  %159 = phi ptr [ %156, %153 ], [ null, %157 ]
  call void @heap_fill_tuple(ptr noundef %140, ptr noundef %141, ptr noundef %142, ptr noundef %146, i64 noundef %148, ptr noundef %150, ptr noundef %159)
  store i32 0, ptr %13, align 4
  br label %160

160:                                              ; preds = %177, %158
  %161 = load i32, ptr %13, align 4
  %162 = load i32, ptr %12, align 4
  %163 = icmp slt i32 %161, %162
  br i1 %163, label %164, label %180

164:                                              ; preds = %160
  %165 = load i32, ptr %13, align 4
  %166 = sext i32 %165 to i64
  %167 = getelementptr inbounds [1664 x i8], ptr %17, i64 0, i64 %166
  %168 = load i8, ptr %167, align 1, !range !4, !noundef !5
  %169 = trunc i8 %168 to i1
  br i1 %169, label %170, label %176

170:                                              ; preds = %164
  %171 = load i32, ptr %13, align 4
  %172 = sext i32 %171 to i64
  %173 = getelementptr inbounds [1664 x i64], ptr %15, i64 0, i64 %172
  %174 = load i64, ptr %173, align 8
  %175 = call ptr @DatumGetPointer(i64 noundef %174)
  call void @pfree(ptr noundef %175)
  br label %176

176:                                              ; preds = %170, %164
  br label %177

177:                                              ; preds = %176
  %178 = load i32, ptr %13, align 4
  %179 = add i32 %178, 1
  store i32 %179, ptr %13, align 4
  br label %160, !llvm.loop !14

180:                                              ; preds = %160
  %181 = load ptr, ptr %7, align 8
  %182 = call i64 @PointerGetDatum(ptr noundef %181)
  call void @llvm.lifetime.end.p0(i64 1664, ptr %17) #7
  call void @llvm.lifetime.end.p0(i64 1664, ptr %16) #7
  call void @llvm.lifetime.end.p0(i64 13312, ptr %15) #7
  call void @llvm.lifetime.end.p0(i64 1, ptr %14) #7
  call void @llvm.lifetime.end.p0(i64 4, ptr %13) #7
  call void @llvm.lifetime.end.p0(i64 4, ptr %12) #7
  call void @llvm.lifetime.end.p0(i64 24, ptr %11) #7
  call void @llvm.lifetime.end.p0(i64 4, ptr %10) #7
  call void @llvm.lifetime.end.p0(i64 4, ptr %9) #7
  call void @llvm.lifetime.end.p0(i64 4, ptr %8) #7
  call void @llvm.lifetime.end.p0(i64 8, ptr %7) #7
  ret i64 %182
}