; Function Attrs: nounwind uwtable
define dso_local noundef i64 @toast_flatten_tuple_to_datum(ptr noundef %0, i32 noundef %1, ptr noundef %2) local_unnamed_addr #0 {
  %4 = alloca %struct.HeapTupleData, align 8
  %5 = alloca [1664 x i64], align 16
  %6 = alloca [1664 x i8], align 16
  %7 = alloca [1664 x i8], align 16
  call void @llvm.lifetime.start.p0(i64 24, ptr nonnull %4) #8
  %8 = load i32, ptr %2, align 8
  call void @llvm.lifetime.start.p0(i64 13312, ptr nonnull %5) #8
  call void @llvm.lifetime.start.p0(i64 1664, ptr nonnull %6) #8
  call void @llvm.lifetime.start.p0(i64 1664, ptr nonnull %7) #8
  store i32 %1, ptr %4, align 8
  %9 = getelementptr inbounds nuw i8, ptr %4, i64 4
  store i16 -1, ptr %9, align 4
  %10 = getelementptr inbounds nuw i8, ptr %4, i64 6
  store i16 -1, ptr %10, align 2
  %11 = getelementptr inbounds nuw i8, ptr %4, i64 8
  store i16 0, ptr %11, align 8
  %12 = getelementptr inbounds nuw i8, ptr %4, i64 12
  store i32 0, ptr %12, align 4
  %13 = getelementptr inbounds nuw i8, ptr %4, i64 16
  store ptr %0, ptr %13, align 8
  call void @heap_deform_tuple(ptr noundef nonnull %4, ptr noundef nonnull %2, ptr noundef nonnull %5, ptr noundef nonnull %6) #8
  %14 = sext i32 %8 to i64
  call void @llvm.memset.p0.i64(ptr nonnull align 16 %7, i8 0, i64 %14, i1 false)
  %15 = icmp sgt i32 %8, 0
  br i1 %15, label %.lr.ph, label %._crit_edge.thread

.lr.ph:                                           ; preds = %3
  %16 = getelementptr i8, ptr %2, i64 28
  %wide.trip.count = zext nneg i32 %8 to i64
  br label %17

17:                                               ; preds = %.lr.ph, %37
  %indvars.iv = phi i64 [ 0, %.lr.ph ], [ %indvars.iv.next, %37 ]
  %.058 = phi i1 [ false, %.lr.ph ], [ %.1, %37 ]
  %18 = getelementptr inbounds nuw [1664 x i8], ptr %6, i64 0, i64 %indvars.iv
  %19 = load i8, ptr %18, align 1, !range !4, !noundef !5
  %20 = trunc nuw i8 %19 to i1
  br i1 %20, label %37, label %21

21:                                               ; preds = %17
  %.idx = shl nuw nsw i64 %indvars.iv, 4
  %22 = getelementptr i8, ptr %16, i64 %.idx
  %23 = load i16, ptr %22, align 4
  %24 = icmp eq i16 %23, -1
  br i1 %24, label %25, label %37

25:                                               ; preds = %21
  %26 = getelementptr inbounds nuw [1664 x i64], ptr %5, i64 0, i64 %indvars.iv
  %27 = load i64, ptr %26, align 8
  %28 = inttoptr i64 %27 to ptr
  %29 = load i8, ptr %28, align 1
  %30 = icmp eq i8 %29, 1
  %31 = and i8 %29, 3
  %32 = icmp eq i8 %31, 2
  %or.cond = or i1 %30, %32
  br i1 %or.cond, label %33, label %37

33:                                               ; preds = %25
  %34 = call ptr @detoast_attr(ptr noundef nonnull %28) #8
  %35 = ptrtoint ptr %34 to i64
  store i64 %35, ptr %26, align 8
  %36 = getelementptr inbounds nuw [1664 x i8], ptr %7, i64 0, i64 %indvars.iv
  store i8 1, ptr %36, align 1
  br label %37

37:                                               ; preds = %33, %25, %17, %21
  %.1 = phi i1 [ %.058, %21 ], [ true, %17 ], [ %.058, %25 ], [ %.058, %33 ]
  %indvars.iv.next = add nuw nsw i64 %indvars.iv, 1
  %exitcond.not = icmp eq i64 %indvars.iv.next, %wide.trip.count
  br i1 %exitcond.not, label %._crit_edge, label %17, !llvm.loop !9

._crit_edge:                                      ; preds = %37
  br i1 %.1, label %38, label %._crit_edge.thread

38:                                               ; preds = %._crit_edge
  %39 = add nuw i32 %8, 7
  %40 = sdiv i32 %39, 8
  %narrow = add nsw i32 %40, 30
  %41 = and i32 %narrow, -8
  br label %._crit_edge.thread

._crit_edge.thread:                               ; preds = %3, %38, %._crit_edge
  %.0.lcssa69 = phi i1 [ true, %38 ], [ false, %._crit_edge ], [ false, %3 ]
  %.053 = phi i32 [ %41, %38 ], [ 24, %._crit_edge ], [ 24, %3 ]
  %42 = call i64 @heap_compute_data_size(ptr noundef nonnull %2, ptr noundef nonnull %5, ptr noundef nonnull %6) #8
  %43 = trunc i64 %42 to i32
  %44 = add i32 %.053, %43
  %45 = sext i32 %44 to i64
  %46 = call ptr @palloc0(i64 noundef %45) #8
  call void @llvm.memcpy.p0.p0.i64(ptr noundef nonnull align 4 dereferenceable(23) %46, ptr noundef nonnull align 4 dereferenceable(23) %0, i64 23, i1 false)
  %47 = getelementptr inbounds nuw i8, ptr %46, i64 18
  %48 = load i16, ptr %47, align 2
  %49 = and i16 %48, -2048
  %50 = trunc i32 %8 to i16
  %51 = or i16 %49, %50
  store i16 %51, ptr %47, align 2
  %52 = trunc i32 %.053 to i8
  %53 = getelementptr inbounds nuw i8, ptr %46, i64 22
  store i8 %52, ptr %53, align 2
  %54 = shl i32 %44, 2
  store i32 %54, ptr %46, align 4
  %55 = getelementptr inbounds nuw i8, ptr %2, i64 4
  %56 = load i32, ptr %55, align 4
  %57 = getelementptr inbounds nuw i8, ptr %46, i64 8
  store i32 %56, ptr %57, align 4
  %58 = getelementptr inbounds nuw i8, ptr %2, i64 8
  %59 = load i32, ptr %58, align 8
  %60 = getelementptr inbounds nuw i8, ptr %46, i64 4
  store i32 %59, ptr %60, align 4
  %61 = sext i32 %.053 to i64
  %62 = getelementptr inbounds i8, ptr %46, i64 %61
  %sext = shl i64 %42, 32
  %63 = ashr exact i64 %sext, 32
  %64 = getelementptr inbounds nuw i8, ptr %46, i64 20
  %65 = getelementptr inbounds nuw i8, ptr %46, i64 23
  %spec.select = select i1 %.0.lcssa69, ptr %65, ptr null
  call void @heap_fill_tuple(ptr noundef nonnull %2, ptr noundef nonnull %5, ptr noundef nonnull %6, ptr noundef nonnull %62, i64 noundef %63, ptr noundef nonnull %64, ptr noundef %spec.select) #8
  br i1 %15, label %.lr.ph61.preheader, label %._crit_edge62

.lr.ph61.preheader:                               ; preds = %._crit_edge.thread
  %wide.trip.count66 = zext nneg i32 %8 to i64
  br label %.lr.ph61

.lr.ph61:                                         ; preds = %.lr.ph61.preheader, %73
  %indvars.iv63 = phi i64 [ 0, %.lr.ph61.preheader ], [ %indvars.iv.next64, %73 ]
  %66 = getelementptr inbounds nuw [1664 x i8], ptr %7, i64 0, i64 %indvars.iv63
  %67 = load i8, ptr %66, align 1, !range !4, !noundef !5
  %68 = trunc nuw i8 %67 to i1
  br i1 %68, label %69, label %73

69:                                               ; preds = %.lr.ph61
  %70 = getelementptr inbounds nuw [1664 x i64], ptr %5, i64 0, i64 %indvars.iv63
  %71 = load i64, ptr %70, align 8
  %72 = inttoptr i64 %71 to ptr
  call void @pfree(ptr noundef %72) #8
  br label %73

73:                                               ; preds = %.lr.ph61, %69
  %indvars.iv.next64 = add nuw nsw i64 %indvars.iv63, 1
  %exitcond67.not = icmp eq i64 %indvars.iv.next64, %wide.trip.count66
  br i1 %exitcond67.not, label %._crit_edge62, label %.lr.ph61, !llvm.loop !10

._crit_edge62:                                    ; preds = %73, %._crit_edge.thread
  %74 = ptrtoint ptr %46 to i64
  call void @llvm.lifetime.end.p0(i64 1664, ptr nonnull %7) #8
  call void @llvm.lifetime.end.p0(i64 1664, ptr nonnull %6) #8
  call void @llvm.lifetime.end.p0(i64 13312, ptr nonnull %5) #8
  call void @llvm.lifetime.end.p0(i64 24, ptr nonnull %4) #8
  ret i64 %74
}